; ModuleID = '27/1867.c'
source_filename = "27/1867.c"
target datalayout = "e-m:e-p270:32:32-p271:32:32-p272:64:64-i64:64-f80:128-n8:16:32:64-S128"
target triple = "x86_64-pc-linux-gnu"

@.str = private unnamed_addr constant [3 x i8] c"%d\00", align 1
@.str.1 = private unnamed_addr constant [12 x i8] c"%lf %lf %lf\00", align 1
@.str.2 = private unnamed_addr constant [19 x i8] c"x1=%.5lf;x2=%.5lf\0A\00", align 1
@.str.3 = private unnamed_addr constant [13 x i8] c"x1=x2=%.5lf\0A\00", align 1
@.str.4 = private unnamed_addr constant [33 x i8] c"x1=%.5lf+%.5lfi;x2=%.5lf-%.5lfi\0A\00", align 1

; Function Attrs: noinline nounwind uwtable
define dso_local i32 @main() #0 {
  %1 = alloca i32, align 4
  %2 = alloca i32, align 4
  %3 = alloca i32, align 4
  %4 = alloca [100 x double], align 16
  %5 = alloca [100 x double], align 16
  %6 = alloca [100 x double], align 16
  %7 = alloca double, align 8
  %8 = alloca double, align 8
  %9 = alloca double, align 8
  %10 = alloca double, align 8
  %11 = alloca double, align 8
  store i32 0, i32* %1, align 4
  %12 = call i32 (i8*, ...) @__isoc99_scanf(i8* getelementptr inbounds ([3 x i8], [3 x i8]* @.str, i64 0, i64 0), i32* %2)
  store i32 1, i32* %3, align 4
  br label %13

13:                                               ; preds = %169, %0
  %14 = load i32, i32* %3, align 4
  %15 = load i32, i32* %2, align 4
  %16 = icmp sle i32 %14, %15
  br i1 %16, label %17, label %172

17:                                               ; preds = %13
  %18 = load i32, i32* %3, align 4
  %19 = sext i32 %18 to i64
  %20 = getelementptr inbounds [100 x double], [100 x double]* %4, i64 0, i64 %19
  %21 = load i32, i32* %3, align 4
  %22 = sext i32 %21 to i64
  %23 = getelementptr inbounds [100 x double], [100 x double]* %5, i64 0, i64 %22
  %24 = load i32, i32* %3, align 4
  %25 = sext i32 %24 to i64
  %26 = getelementptr inbounds [100 x double], [100 x double]* %6, i64 0, i64 %25
  %27 = call i32 (i8*, ...) @__isoc99_scanf(i8* getelementptr inbounds ([12 x i8], [12 x i8]* @.str.1, i64 0, i64 0), double* %20, double* %23, double* %26)
  %28 = load i32, i32* %3, align 4
  %29 = sext i32 %28 to i64
  %30 = getelementptr inbounds [100 x double], [100 x double]* %5, i64 0, i64 %29
  %31 = load double, double* %30, align 8
  %32 = load i32, i32* %3, align 4
  %33 = sext i32 %32 to i64
  %34 = getelementptr inbounds [100 x double], [100 x double]* %5, i64 0, i64 %33
  %35 = load double, double* %34, align 8
  %36 = fmul double %31, %35
  %37 = load i32, i32* %3, align 4
  %38 = sext i32 %37 to i64
  %39 = getelementptr inbounds [100 x double], [100 x double]* %4, i64 0, i64 %38
  %40 = load double, double* %39, align 8
  %41 = fmul double 4.000000e+00, %40
  %42 = load i32, i32* %3, align 4
  %43 = sext i32 %42 to i64
  %44 = getelementptr inbounds [100 x double], [100 x double]* %6, i64 0, i64 %43
  %45 = load double, double* %44, align 8
  %46 = fmul double %41, %45
  %47 = fsub double %36, %46
  store double %47, double* %7, align 8
  %48 = load double, double* %7, align 8
  %49 = fcmp ogt double %48, 0.000000e+00
  br i1 %49, label %50, label %120

50:                                               ; preds = %17
  %51 = load i32, i32* %3, align 4
  %52 = sext i32 %51 to i64
  %53 = getelementptr inbounds [100 x double], [100 x double]* %5, i64 0, i64 %52
  %54 = load double, double* %53, align 8
  %55 = fneg double %54
  %56 = load i32, i32* %3, align 4
  %57 = sext i32 %56 to i64
  %58 = getelementptr inbounds [100 x double], [100 x double]* %5, i64 0, i64 %57
  %59 = load double, double* %58, align 8
  %60 = load i32, i32* %3, align 4
  %61 = sext i32 %60 to i64
  %62 = getelementptr inbounds [100 x double], [100 x double]* %5, i64 0, i64 %61
  %63 = load double, double* %62, align 8
  %64 = fmul double %59, %63
  %65 = load i32, i32* %3, align 4
  %66 = sext i32 %65 to i64
  %67 = getelementptr inbounds [100 x double], [100 x double]* %4, i64 0, i64 %66
  %68 = load double, double* %67, align 8
  %69 = fmul double 4.000000e+00, %68
  %70 = load i32, i32* %3, align 4
  %71 = sext i32 %70 to i64
  %72 = getelementptr inbounds [100 x double], [100 x double]* %6, i64 0, i64 %71
  %73 = load double, double* %72, align 8
  %74 = fmul double %69, %73
  %75 = fsub double %64, %74
  %76 = call double @sqrt(double %75) #3
  %77 = fadd double %55, %76
  %78 = load i32, i32* %3, align 4
  %79 = sext i32 %78 to i64
  %80 = getelementptr inbounds [100 x double], [100 x double]* %4, i64 0, i64 %79
  %81 = load double, double* %80, align 8
  %82 = fmul double 2.000000e+00, %81
  %83 = fdiv double %77, %82
  store double %83, double* %8, align 8
  %84 = load i32, i32* %3, align 4
  %85 = sext i32 %84 to i64
  %86 = getelementptr inbounds [100 x double], [100 x double]* %5, i64 0, i64 %85
  %87 = load double, double* %86, align 8
  %88 = fneg double %87
  %89 = load i32, i32* %3, align 4
  %90 = sext i32 %89 to i64
  %91 = getelementptr inbounds [100 x double], [100 x double]* %5, i64 0, i64 %90
  %92 = load double, double* %91, align 8
  %93 = load i32, i32* %3, align 4
  %94 = sext i32 %93 to i64
  %95 = getelementptr inbounds [100 x double], [100 x double]* %5, i64 0, i64 %94
  %96 = load double, double* %95, align 8
  %97 = fmul double %92, %96
  %98 = load i32, i32* %3, align 4
  %99 = sext i32 %98 to i64
  %100 = getelementptr inbounds [100 x double], [100 x double]* %4, i64 0, i64 %99
  %101 = load double, double* %100, align 8
  %102 = fmul double 4.000000e+00, %101
  %103 = load i32, i32* %3, align 4
  %104 = sext i32 %103 to i64
  %105 = getelementptr inbounds [100 x double], [100 x double]* %6, i64 0, i64 %104
  %106 = load double, double* %105, align 8
  %107 = fmul double %102, %106
  %108 = fsub double %97, %107
  %109 = call double @sqrt(double %108) #3
  %110 = fsub double %88, %109
  %111 = load i32, i32* %3, align 4
  %112 = sext i32 %111 to i64
  %113 = getelementptr inbounds [100 x double], [100 x double]* %4, i64 0, i64 %112
  %114 = load double, double* %113, align 8
  %115 = fmul double 2.000000e+00, %114
  %116 = fdiv double %110, %115
  store double %116, double* %9, align 8
  %117 = load double, double* %8, align 8
  %118 = load double, double* %9, align 8
  %119 = call i32 (i8*, ...) @printf(i8* getelementptr inbounds ([19 x i8], [19 x i8]* @.str.2, i64 0, i64 0), double %117, double %118)
  br label %168

120:                                              ; preds = %17
  %121 = load double, double* %7, align 8
  %122 = fcmp oeq double %121, 0.000000e+00
  br i1 %122, label %123, label %137

123:                                              ; preds = %120
  %124 = load i32, i32* %3, align 4
  %125 = sext i32 %124 to i64
  %126 = getelementptr inbounds [100 x double], [100 x double]* %5, i64 0, i64 %125
  %127 = load double, double* %126, align 8
  %128 = fneg double %127
  %129 = load i32, i32* %3, align 4
  %130 = sext i32 %129 to i64
  %131 = getelementptr inbounds [100 x double], [100 x double]* %4, i64 0, i64 %130
  %132 = load double, double* %131, align 8
  %133 = fmul double 2.000000e+00, %132
  %134 = fdiv double %128, %133
  store double %134, double* %8, align 8
  %135 = load double, double* %8, align 8
  %136 = call i32 (i8*, ...) @printf(i8* getelementptr inbounds ([13 x i8], [13 x i8]* @.str.3, i64 0, i64 0), double %135)
  br label %167

137:                                              ; preds = %120
  %138 = load i32, i32* %3, align 4
  %139 = sext i32 %138 to i64
  %140 = getelementptr inbounds [100 x double], [100 x double]* %5, i64 0, i64 %139
  %141 = load double, double* %140, align 8
  %142 = fneg double %141
  %143 = load i32, i32* %3, align 4
  %144 = sext i32 %143 to i64
  %145 = getelementptr inbounds [100 x double], [100 x double]* %4, i64 0, i64 %144
  %146 = load double, double* %145, align 8
  %147 = fmul double 2.000000e+00, %146
  %148 = fdiv double %142, %147
  store double %148, double* %10, align 8
  %149 = load double, double* %7, align 8
  %150 = fneg double %149
  %151 = call double @sqrt(double %150) #3
  %152 = load i32, i32* %3, align 4
  %153 = sext i32 %152 to i64
  %154 = getelementptr inbounds [100 x double], [100 x double]* %4, i64 0, i64 %153
  %155 = load double, double* %154, align 8
  %156 = fmul double 2.000000e+00, %155
  %157 = fdiv double %151, %156
  store double %157, double* %11, align 8
  %158 = load double, double* %10, align 8
  %159 = fcmp oeq double %158, 0.000000e+00
  br i1 %159, label %160, label %161

160:                                              ; preds = %137
  store double 0.000000e+00, double* %10, align 8
  br label %161

161:                                              ; preds = %160, %137
  %162 = load double, double* %10, align 8
  %163 = load double, double* %11, align 8
  %164 = load double, double* %10, align 8
  %165 = load double, double* %11, align 8
  %166 = call i32 (i8*, ...) @printf(i8* getelementptr inbounds ([33 x i8], [33 x i8]* @.str.4, i64 0, i64 0), double %162, double %163, double %164, double %165)
  br label %167

167:                                              ; preds = %161, %123
  br label %168

168:                                              ; preds = %167, %50
  br label %169

169:                                              ; preds = %168
  %170 = load i32, i32* %3, align 4
  %171 = add nsw i32 %170, 1
  store i32 %171, i32* %3, align 4
  br label %13

172:                                              ; preds = %13
  %173 = load i32, i32* %1, align 4
  ret i32 %173
}

declare dso_local i32 @__isoc99_scanf(i8*, ...) #1

; Function Attrs: nounwind
declare dso_local double @sqrt(double) #2

declare dso_local i32 @printf(i8*, ...) #1


!llvm.module.flags = !{!0}
!llvm.ident = !{!1}

!0 = !{i32 1, !"wchar_size", i32 4}
!1 = !{!"clang version 10.0.0-4ubuntu1 "}
